target datalayout = "e-m:e-p270:32:32-p271:32:32-p272:64:64-i64:64-i128:128-f80:128-n8:16:32:64-S128"
target triple = "x86_64-unknown-linux-gnu"

%"class.rocksdb::Slice" = type { ptr, i64 }
%"class.rocksdb::IterKey" = type { ptr, ptr, i64, i64, [39 x i8], i8 }
%"class.rocksdb::BaseCacheInterface" = type { ptr }
%"struct.rocksdb::FileDescriptor" = type { ptr, i64, i64, i64, i64 }
%"class.std::__cxx11::basic_string" = type { %"struct.std::__cxx11::basic_string<char>::_Alloc_hider", i64, %union.anon }
%"struct.std::__cxx11::basic_string<char>::_Alloc_hider" = type { ptr }
%union.anon = type { i64, [8 x i8] }
%"class.rocksdb::TableCache" = type { ptr, ptr, %"class.rocksdb::BasicTypedCacheInterface", %"class.std::__cxx11::basic_string", i8, ptr, %"class.rocksdb::Striped", %"class.std::shared_ptr", %"class.std::__cxx11::basic_string" }
%"class.rocksdb::BasicTypedCacheInterface" = type { %"class.rocksdb::BaseCacheInterface" }
%"class.rocksdb::Striped" = type <{ i64, %"class.std::unique_ptr.5", %"struct.rocksdb::SliceNPHasher64", [7 x i8] }>
%"class.std::unique_ptr.5" = type { %"struct.std::__uniq_ptr_data.6" }
%"struct.std::__uniq_ptr_data.6" = type { %"class.std::__uniq_ptr_impl.7" }
%"class.std::__uniq_ptr_impl.7" = type { %"class.std::tuple.8" }
%"class.std::tuple.8" = type { %"struct.std::_Tuple_impl.9" }
%"struct.std::_Tuple_impl.9" = type { %"struct.std::_Head_base.12" }
%"struct.std::_Head_base.12" = type { ptr }
%"struct.rocksdb::SliceNPHasher64" = type { i8 }
%"class.std::shared_ptr" = type { %"class.std::__shared_ptr" }
%"class.std::__shared_ptr" = type { ptr, %"class.std::__shared_count" }
%"class.std::__shared_count" = type { ptr }
%"struct.rocksdb::ReadOptions" = type <{ ptr, ptr, ptr, %"class.std::chrono::duration", %"class.std::chrono::duration", i32, i32, i64, %"class.std::optional", i8, i8, i8, i8, i8, [3 x i8], i64, i64, ptr, ptr, i8, i8, i8, i8, i8, i8, i8, i8, %"class.std::function", i8, i8, [6 x i8] }>
%"class.std::chrono::duration" = type { i64 }
%"class.std::optional" = type { %"struct.std::_Optional_base" }
%"struct.std::_Optional_base" = type { %"struct.std::_Optional_payload" }
%"struct.std::_Optional_payload" = type { %"struct.std::_Optional_payload_base.base", [7 x i8] }
%"struct.std::_Optional_payload_base.base" = type <{ %"union.std::_Optional_payload_base<unsigned long>::_Storage", i8 }>
%"union.std::_Optional_payload_base<unsigned long>::_Storage" = type { i64 }
%"class.std::function" = type { %"class.std::_Function_base", ptr }
%"class.std::_Function_base" = type { %"union.std::_Any_data", ptr }
%"union.std::_Any_data" = type { %"union.std::_Nocopy_types" }
%"union.std::_Nocopy_types" = type { { i64, i64 } }
%"class.rocksdb::GetContext" = type { %"struct.rocksdb::GetContextStats", ptr, ptr, ptr, ptr, i32, %"class.rocksdb::Slice", %"class.rocksdb::PinnableSlice", ptr, ptr, ptr, i8, ptr, ptr, ptr, ptr, ptr, ptr, ptr, ptr, i8, i8, ptr, i64, ptr }
%"struct.rocksdb::GetContextStats" = type { i64, i64, i64, i64, i64, i64, i64, i64, i64, i64, i64, i64, i64, i64, i64, i64, i64, i64, i64, i64, i64, i64, i64, i64, i64, i64, i64, i64, i64 }
%"class.rocksdb::PinnableSlice" = type <{ %"class.rocksdb::Slice", %"class.rocksdb::Cleanable", %"class.std::__cxx11::basic_string", ptr, i8, [7 x i8] }>
%"class.rocksdb::Cleanable" = type { %"struct.rocksdb::Cleanable::Cleanup" }
%"struct.rocksdb::Cleanable::Cleanup" = type { ptr, ptr, ptr, ptr }

; Function Attrs: mustprogress uwtable
define linkonce_odr void @_ZN7rocksdb7IterKey21EnlargeBufferIfNeededEm(ptr noundef nonnull align 8 dereferenceable(72) %this, i64 noundef %key_size) #0 comdat align 2 {
entry:
  %this.addr = alloca ptr, align 8
  %key_size.addr = alloca i64, align 8
  store ptr %this, ptr %this.addr, align 8
  store i64 %key_size, ptr %key_size.addr, align 8
  %this1 = load ptr, ptr %this.addr, align 8
  %0 = load i64, ptr %key_size.addr, align 8
  %buf_size_ = getelementptr inbounds %"class.rocksdb::IterKey", ptr %this1, i32 0, i32 3
  %1 = load i64, ptr %buf_size_, align 8
  %cmp = icmp ugt i64 %0, %1
  br i1 %cmp, label %if.then, label %if.end

if.then:                                          ; preds = %entry
  %2 = load i64, ptr %key_size.addr, align 8
  call void @_ZN7rocksdb7IterKey13EnlargeBufferEm(ptr noundef nonnull align 8 dereferenceable(72) %this1, i64 noundef %2)
  br label %if.end

if.end:                                           ; preds = %if.then, %entry
  ret void
}

; Function Attrs: mustprogress nounwind uwtable
define linkonce_odr noundef zeroext i1 @_ZNK7rocksdb7IterKey11IsKeyPinnedEv(ptr noundef nonnull align 8 dereferenceable(72) %this) #1 comdat align 2 {
entry:
  %this.addr = alloca ptr, align 8
  store ptr %this, ptr %this.addr, align 8
  %this1 = load ptr, ptr %this.addr, align 8
  %key_ = getelementptr inbounds %"class.rocksdb::IterKey", ptr %this1, i32 0, i32 1
  %0 = load ptr, ptr %key_, align 8
  %buf_ = getelementptr inbounds %"class.rocksdb::IterKey", ptr %this1, i32 0, i32 0
  %1 = load ptr, ptr %buf_, align 8
  %cmp = icmp ne ptr %0, %1
  ret i1 %cmp
}

; Function Attrs: mustprogress nounwind uwtable
define linkonce_odr noundef i64 @_ZN7rocksdb13DecodeFixed64EPKc(ptr noundef %ptr) #1 comdat {
entry:
  %ptr.addr = alloca ptr, align 8
  %result = alloca i64, align 8
  store ptr %ptr, ptr %ptr.addr, align 8
  %0 = load ptr, ptr %ptr.addr, align 8
  call void @llvm.memcpy.p0.p0.i64(ptr align 8 %result, ptr align 1 %0, i64 8, i1 false)
  %1 = load i64, ptr %result, align 8
  ret i64 %1
}

; Function Attrs: mustprogress nounwind uwtable
define linkonce_odr noundef ptr @_ZNK7rocksdb5Slice4dataEv(ptr noundef nonnull align 8 dereferenceable(16) %this) #1 comdat align 2 {
entry:
  %this.addr = alloca ptr, align 8
  store ptr %this, ptr %this.addr, align 8
  %this1 = load ptr, ptr %this.addr, align 8
  %data_ = getelementptr inbounds %"class.rocksdb::Slice", ptr %this1, i32 0, i32 0
  %0 = load ptr, ptr %data_, align 8
  ret ptr %0
}

; Function Attrs: mustprogress nounwind uwtable
define linkonce_odr noundef i64 @_ZNK7rocksdb5Slice4sizeEv(ptr noundef nonnull align 8 dereferenceable(16) %this) #1 comdat align 2 {
entry:
  %this.addr = alloca ptr, align 8
  store ptr %this, ptr %this.addr, align 8
  %this1 = load ptr, ptr %this.addr, align 8
  %size_ = getelementptr inbounds %"class.rocksdb::Slice", ptr %this1, i32 0, i32 1
  %0 = load i64, ptr %size_, align 8
  ret i64 %0
}

; Function Attrs: mustprogress uwtable
define linkonce_odr void @_ZN7rocksdb7IterKey10TrimAppendEmPKcm(ptr noundef nonnull align 8 dereferenceable(72) %this, i64 noundef %shared_len, ptr noundef %non_shared_data, i64 noundef %non_shared_len) #0 comdat align 2 {
entry:
  %this.addr = alloca ptr, align 8
  %shared_len.addr = alloca i64, align 8
  %non_shared_data.addr = alloca ptr, align 8
  %non_shared_len.addr = alloca i64, align 8
  %total_size = alloca i64, align 8
  %p = alloca ptr, align 8
  store ptr %this, ptr %this.addr, align 8
  store i64 %shared_len, ptr %shared_len.addr, align 8
  store ptr %non_shared_data, ptr %non_shared_data.addr, align 8
  store i64 %non_shared_len, ptr %non_shared_len.addr, align 8
  %this1 = load ptr, ptr %this.addr, align 8
  %0 = load i64, ptr %shared_len.addr, align 8
  %1 = load i64, ptr %non_shared_len.addr, align 8
  %add = add i64 %0, %1
  store i64 %add, ptr %total_size, align 8
  %call = call noundef zeroext i1 @_ZNK7rocksdb7IterKey11IsKeyPinnedEv(ptr noundef nonnull align 8 dereferenceable(72) %this1)
  br i1 %call, label %if.then, label %if.else

if.then:                                          ; preds = %entry
  %2 = load i64, ptr %total_size, align 8
  call void @_ZN7rocksdb7IterKey21EnlargeBufferIfNeededEm(ptr noundef nonnull align 8 dereferenceable(72) %this1, i64 noundef %2)
  %buf_ = getelementptr inbounds %"class.rocksdb::IterKey", ptr %this1, i32 0, i32 0
  %3 = load ptr, ptr %buf_, align 8
  %key_ = getelementptr inbounds %"class.rocksdb::IterKey", ptr %this1, i32 0, i32 1
  %4 = load ptr, ptr %key_, align 8
  %5 = load i64, ptr %shared_len.addr, align 8
  call void @llvm.memcpy.p0.p0.i64(ptr align 1 %3, ptr align 1 %4, i64 %5, i1 false)
  br label %if.end12

if.else:                                          ; preds = %entry
  %6 = load i64, ptr %total_size, align 8
  %buf_size_ = getelementptr inbounds %"class.rocksdb::IterKey", ptr %this1, i32 0, i32 3
  %7 = load i64, ptr %buf_size_, align 8
  %cmp = icmp ugt i64 %6, %7
  br i1 %cmp, label %if.then2, label %if.end11

if.then2:                                         ; preds = %if.else
  %8 = load i64, ptr %total_size, align 8
  %call3 = call noalias noundef nonnull ptr @_Znam(i64 noundef %8) #18
  store ptr %call3, ptr %p, align 8
  %9 = load ptr, ptr %p, align 8
  %key_4 = getelementptr inbounds %"class.rocksdb::IterKey", ptr %this1, i32 0, i32 1
  %10 = load ptr, ptr %key_4, align 8
  %11 = load i64, ptr %shared_len.addr, align 8
  call void @llvm.memcpy.p0.p0.i64(ptr align 1 %9, ptr align 1 %10, i64 %11, i1 false)
  %buf_5 = getelementptr inbounds %"class.rocksdb::IterKey", ptr %this1, i32 0, i32 0
  %12 = load ptr, ptr %buf_5, align 8
  %space_ = getelementptr inbounds %"class.rocksdb::IterKey", ptr %this1, i32 0, i32 4
  %arraydecay = getelementptr inbounds [39 x i8], ptr %space_, i64 0, i64 0
  %cmp6 = icmp ne ptr %12, %arraydecay
  br i1 %cmp6, label %if.then7, label %if.end

if.then7:                                         ; preds = %if.then2
  %buf_8 = getelementptr inbounds %"class.rocksdb::IterKey", ptr %this1, i32 0, i32 0
  %13 = load ptr, ptr %buf_8, align 8
  %isnull = icmp eq ptr %13, null
  br i1 %isnull, label %delete.end, label %delete.notnull

delete.notnull:                                   ; preds = %if.then7
  call void @_ZdaPv(ptr noundef %13) #19
  br label %delete.end

delete.end:                                       ; preds = %delete.notnull, %if.then7
  br label %if.end

if.end:                                           ; preds = %delete.end, %if.then2
  %14 = load ptr, ptr %p, align 8
  %buf_9 = getelementptr inbounds %"class.rocksdb::IterKey", ptr %this1, i32 0, i32 0
  store ptr %14, ptr %buf_9, align 8
  %15 = load i64, ptr %total_size, align 8
  %buf_size_10 = getelementptr inbounds %"class.rocksdb::IterKey", ptr %this1, i32 0, i32 3
  store i64 %15, ptr %buf_size_10, align 8
  br label %if.end11

if.end11:                                         ; preds = %if.end, %if.else
  br label %if.end12

if.end12:                                         ; preds = %if.end11, %if.then
  %buf_13 = getelementptr inbounds %"class.rocksdb::IterKey", ptr %this1, i32 0, i32 0
  %16 = load ptr, ptr %buf_13, align 8
  %17 = load i64, ptr %shared_len.addr, align 8
  %add.ptr = getelementptr inbounds i8, ptr %16, i64 %17
  %18 = load ptr, ptr %non_shared_data.addr, align 8
  %19 = load i64, ptr %non_shared_len.addr, align 8
  call void @llvm.memcpy.p0.p0.i64(ptr align 1 %add.ptr, ptr align 1 %18, i64 %19, i1 false)
  %buf_14 = getelementptr inbounds %"class.rocksdb::IterKey", ptr %this1, i32 0, i32 0
  %20 = load ptr, ptr %buf_14, align 8
  %key_15 = getelementptr inbounds %"class.rocksdb::IterKey", ptr %this1, i32 0, i32 1
  store ptr %20, ptr %key_15, align 8
  %21 = load i64, ptr %total_size, align 8
  %key_size_ = getelementptr inbounds %"class.rocksdb::IterKey", ptr %this1, i32 0, i32 2
  store i64 %21, ptr %key_size_, align 8
  ret void
}

; Function Attrs: mustprogress nounwind uwtable
define linkonce_odr noundef i64 @_ZNK7rocksdb7IterKey4SizeEv(ptr noundef nonnull align 8 dereferenceable(72) %this) #1 comdat align 2 {
entry:
  %this.addr = alloca ptr, align 8
  store ptr %this, ptr %this.addr, align 8
  %this1 = load ptr, ptr %this.addr, align 8
  %key_size_ = getelementptr inbounds %"class.rocksdb::IterKey", ptr %this1, i32 0, i32 2
  %0 = load i64, ptr %key_size_, align 8
  ret i64 %0
}

; Function Attrs: mustprogress nounwind uwtable
define linkonce_odr noundef i64 @_ZN7rocksdb19GetInternalKeySeqnoERKNS_5SliceE(ptr noundef nonnull align 8 dereferenceable(16) %internal_key) #1 comdat {
entry:
  %internal_key.addr = alloca ptr, align 8
  %n = alloca i64, align 8
  %num = alloca i64, align 8
  store ptr %internal_key, ptr %internal_key.addr, align 8
  %0 = load ptr, ptr %internal_key.addr, align 8
  %call = call noundef i64 @_ZNK7rocksdb5Slice4sizeEv(ptr noundef nonnull align 8 dereferenceable(16) %0)
  store i64 %call, ptr %n, align 8
  %1 = load ptr, ptr %internal_key.addr, align 8
  %call1 = call noundef ptr @_ZNK7rocksdb5Slice4dataEv(ptr noundef nonnull align 8 dereferenceable(16) %1)
  %2 = load i64, ptr %n, align 8
  %add.ptr = getelementptr inbounds i8, ptr %call1, i64 %2
  %add.ptr2 = getelementptr inbounds i8, ptr %add.ptr, i64 -8
  %call3 = call noundef i64 @_ZN7rocksdb13DecodeFixed64EPKc(ptr noundef %add.ptr2)
  store i64 %call3, ptr %num, align 8
  %3 = load i64, ptr %num, align 8
  %shr = lshr i64 %3, 8
  ret i64 %shr
}

; Function Attrs: mustprogress nounwind uwtable
define linkonce_odr noundef ptr @_ZN7rocksdb22static_cast_with_checkIKNS_12SnapshotImplEKNS_8SnapshotEEEPT_PT0_(ptr noundef %x) #1 comdat {
entry:
  %x.addr = alloca ptr, align 8
  %ret = alloca ptr, align 8
  store ptr %x, ptr %x.addr, align 8
  %0 = load ptr, ptr %x.addr, align 8
  store ptr %0, ptr %ret, align 8
  %1 = load ptr, ptr %ret, align 8
  ret ptr %1
}

; Function Attrs: mustprogress nounwind uwtable
define linkonce_odr noundef zeroext i1 @_ZNK7rocksdb10GetContext12has_callbackEv(ptr noundef nonnull align 8 dereferenceable(512) %this) #1 comdat align 2 {
entry:
  %this.addr = alloca ptr, align 8
  store ptr %this, ptr %this.addr, align 8
  %this1 = load ptr, ptr %this.addr, align 8
  %callback_ = getelementptr inbounds %"class.rocksdb::GetContext", ptr %this1, i32 0, i32 19
  %0 = load ptr, ptr %callback_, align 8
  %cmp = icmp ne ptr %0, null
  ret i1 %cmp
}

; Function Attrs: mustprogress nounwind uwtable
define linkonce_odr noundef i64 @_ZNK7rocksdb14FileDescriptor9GetNumberEv(ptr noundef nonnull align 8 dereferenceable(40) %this) #1 comdat align 2 {
entry:
  %this.addr = alloca ptr, align 8
  store ptr %this, ptr %this.addr, align 8
  %this1 = load ptr, ptr %this.addr, align 8
  %packed_number_and_path_id = getelementptr inbounds %"struct.rocksdb::FileDescriptor", ptr %this1, i32 0, i32 1
  %0 = load i64, ptr %packed_number_and_path_id, align 8
  %and = and i64 %0, 4611686018427387903
  ret i64 %and
}

; Function Attrs: mustprogress uwtable
define noundef i64 @_ZN7rocksdb10TableCache23CreateRowCacheKeyPrefixERKNS_11ReadOptionsERKNS_14FileDescriptorERKNS_5SliceEPNS_10GetContextERNS_7IterKeyE(ptr noundef nonnull align 8 dereferenceable(144) %this, ptr noundef nonnull align 8 dereferenceable(154) %options, ptr noundef nonnull align 8 dereferenceable(40) %fd, ptr noundef nonnull align 8 dereferenceable(16) %internal_key, ptr noundef %get_context, ptr noundef nonnull align 8 dereferenceable(72) %row_cache_key) #0 align 2 {
entry:
  %this.addr = alloca ptr, align 8
  %options.addr = alloca ptr, align 8
  %fd.addr = alloca ptr, align 8
  %internal_key.addr = alloca ptr, align 8
  %get_context.addr = alloca ptr, align 8
  %row_cache_key.addr = alloca ptr, align 8
  %fd_number = alloca i64, align 8
  %cache_entry_seq_no = alloca i64, align 8
  store ptr %this, ptr %this.addr, align 8
  store ptr %options, ptr %options.addr, align 8
  store ptr %fd, ptr %fd.addr, align 8
  store ptr %internal_key, ptr %internal_key.addr, align 8
  store ptr %get_context, ptr %get_context.addr, align 8
  store ptr %row_cache_key, ptr %row_cache_key.addr, align 8
  %this1 = load ptr, ptr %this.addr, align 8
  %0 = load ptr, ptr %fd.addr, align 8
  %call = call noundef i64 @_ZNK7rocksdb14FileDescriptor9GetNumberEv(ptr noundef nonnull align 8 dereferenceable(40) %0)
  store i64 %call, ptr %fd_number, align 8
  store i64 0, ptr %cache_entry_seq_no, align 8
  %1 = load ptr, ptr %options.addr, align 8
  %snapshot = getelementptr inbounds %"struct.rocksdb::ReadOptions", ptr %1, i32 0, i32 0
  %2 = load ptr, ptr %snapshot, align 8
  %cmp = icmp ne ptr %2, null
  br i1 %cmp, label %land.lhs.true, label %if.end

land.lhs.true:                                    ; preds = %entry
  %3 = load ptr, ptr %get_context.addr, align 8
  %call2 = call noundef zeroext i1 @_ZNK7rocksdb10GetContext12has_callbackEv(ptr noundef nonnull align 8 dereferenceable(512) %3)
  br i1 %call2, label %if.then, label %lor.lhs.false

lor.lhs.false:                                    ; preds = %land.lhs.true
  %4 = load ptr, ptr %options.addr, align 8
  %snapshot3 = getelementptr inbounds %"struct.rocksdb::ReadOptions", ptr %4, i32 0, i32 0
  %5 = load ptr, ptr %snapshot3, align 8
  %call4 = call noundef ptr @_ZN7rocksdb22static_cast_with_checkIKNS_12SnapshotImplEKNS_8SnapshotEEEPT_PT0_(ptr noundef %5)
  %vtable = load ptr, ptr %call4, align 8
  %vfn = getelementptr inbounds ptr, ptr %vtable, i64 0
  %6 = load ptr, ptr %vfn, align 8
  %call5 = call noundef i64 %6(ptr noundef nonnull align 8 dereferenceable(65) %call4)
  %7 = load ptr, ptr %fd.addr, align 8
  %largest_seqno = getelementptr inbounds %"struct.rocksdb::FileDescriptor", ptr %7, i32 0, i32 4
  %8 = load i64, ptr %largest_seqno, align 8
  %cmp6 = icmp ule i64 %call5, %8
  br i1 %cmp6, label %if.then, label %if.end

if.then:                                          ; preds = %lor.lhs.false, %land.lhs.true
  %9 = load ptr, ptr %internal_key.addr, align 8
  %call7 = call noundef i64 @_ZN7rocksdb19GetInternalKeySeqnoERKNS_5SliceE(ptr noundef nonnull align 8 dereferenceable(16) %9)
  %add = add i64 1, %call7
  store i64 %add, ptr %cache_entry_seq_no, align 8
  br label %if.end

if.end:                                           ; preds = %if.then, %lor.lhs.false, %entry
  %10 = load ptr, ptr %row_cache_key.addr, align 8
  %11 = load ptr, ptr %row_cache_key.addr, align 8
  %call8 = call noundef i64 @_ZNK7rocksdb7IterKey4SizeEv(ptr noundef nonnull align 8 dereferenceable(72) %11)
  %row_cache_id_ = getelementptr inbounds %"class.rocksdb::TableCache", ptr %this1, i32 0, i32 3
  %call9 = call noundef ptr @_ZNSt7__cxx1112basic_stringIcSt11char_traitsIcESaIcEE4dataEv(ptr noundef nonnull align 8 dereferenceable(32) %row_cache_id_) #3
  %row_cache_id_10 = getelementptr inbounds %"class.rocksdb::TableCache", ptr %this1, i32 0, i32 3
  %call11 = call noundef i64 @_ZNKSt7__cxx1112basic_stringIcSt11char_traitsIcESaIcEE4sizeEv(ptr noundef nonnull align 8 dereferenceable(32) %row_cache_id_10) #3
  call void @_ZN7rocksdb7IterKey10TrimAppendEmPKcm(ptr noundef nonnull align 8 dereferenceable(72) %10, i64 noundef %call8, ptr noundef %call9, i64 noundef %call11)
  %12 = load ptr, ptr %row_cache_key.addr, align 8
  %13 = load i64, ptr %fd_number, align 8
  call void @_ZN7rocksdb12_GLOBAL__N_114AppendVarint64EPNS_7IterKeyEm(ptr noundef %12, i64 noundef %13)
  %14 = load ptr, ptr %row_cache_key.addr, align 8
  %15 = load i64, ptr %cache_entry_seq_no, align 8
  call void @_ZN7rocksdb12_GLOBAL__N_114AppendVarint64EPNS_7IterKeyEm(ptr noundef %14, i64 noundef %15)
  %16 = load i64, ptr %cache_entry_seq_no, align 8
  %cmp12 = icmp eq i64 %16, 0
  br i1 %cmp12, label %cond.true, label %cond.false

cond.true:                                        ; preds = %if.end
  br label %cond.end

cond.false:                                       ; preds = %if.end
  %17 = load i64, ptr %cache_entry_seq_no, align 8
  %sub = sub i64 %17, 1
  br label %cond.end

cond.end:                                         ; preds = %cond.false, %cond.true
  %cond = phi i64 [ 0, %cond.true ], [ %sub, %cond.false ]
  ret i64 %cond
}