; Function Attrs: mustprogress uwtable
define noundef i64 @_ZN7rocksdb10TableCache23CreateRowCacheKeyPrefixERKNS_11ReadOptionsERKNS_14FileDescriptorERKNS_5SliceEPNS_10GetContextERNS_7IterKeyE(ptr noundef nonnull align 8 dereferenceable(144) %this, ptr nocapture noundef nonnull readonly align 8 dereferenceable(154) %options, ptr nocapture noundef nonnull readonly align 8 dereferenceable(40) %fd, ptr nocapture noundef nonnull readonly align 8 dereferenceable(16) %internal_key, ptr nocapture noundef readonly %get_context, ptr noundef nonnull align 8 dereferenceable(72) %row_cache_key) local_unnamed_addr #2 align 2 {
entry:
  %packed_number_and_path_id.i = getelementptr inbounds i8, ptr %fd, i64 8
  %0 = load i64, ptr %packed_number_and_path_id.i, align 8
  %1 = load ptr, ptr %options, align 8
  %cmp.not = icmp eq ptr %1, null
  br i1 %cmp.not, label %if.end, label %land.lhs.true

land.lhs.true:                                    ; preds = %entry
  %callback_.i = getelementptr inbounds i8, ptr %get_context, i64 472
  %2 = load ptr, ptr %callback_.i, align 8
  %cmp.i.not = icmp eq ptr %2, null
  br i1 %cmp.i.not, label %lor.lhs.false, label %if.then

lor.lhs.false:                                    ; preds = %land.lhs.true
  %vtable = load ptr, ptr %1, align 8
  %3 = load ptr, ptr %vtable, align 8
  %call5 = tail call noundef i64 %3(ptr noundef nonnull align 8 dereferenceable(65) %1)
  %largest_seqno = getelementptr inbounds i8, ptr %fd, i64 32
  %4 = load i64, ptr %largest_seqno, align 8
  %cmp6.not = icmp ugt i64 %call5, %4
  br i1 %cmp6.not, label %if.end, label %if.then

if.then:                                          ; preds = %lor.lhs.false, %land.lhs.true
  %size_.i.i = getelementptr inbounds i8, ptr %internal_key, i64 8
  %5 = load i64, ptr %size_.i.i, align 8
  %6 = load ptr, ptr %internal_key, align 8
  %add.ptr.i = getelementptr inbounds i8, ptr %6, i64 %5
  %add.ptr2.i = getelementptr inbounds i8, ptr %add.ptr.i, i64 -8
  %result.0.copyload.i.i = load i64, ptr %add.ptr2.i, align 1
  %shr.i = lshr i64 %result.0.copyload.i.i, 8
  %add = add nuw nsw i64 %shr.i, 1
  br label %if.end

if.end:                                           ; preds = %if.then, %lor.lhs.false, %entry
  %cache_entry_seq_no.0 = phi i64 [ %add, %if.then ], [ 0, %lor.lhs.false ], [ 0, %entry ]
  %key_size_.i = getelementptr inbounds i8, ptr %row_cache_key, i64 16
  %7 = load i64, ptr %key_size_.i, align 8
  %row_cache_id_ = getelementptr inbounds i8, ptr %this, i64 24
  %call9 = tail call noundef ptr @_ZNSt7__cxx1112basic_stringIcSt11char_traitsIcESaIcEE4dataEv(ptr noundef nonnull align 8 dereferenceable(32) %row_cache_id_) #19
  %call11 = tail call noundef i64 @_ZNKSt7__cxx1112basic_stringIcSt11char_traitsIcESaIcEE4sizeEv(ptr noundef nonnull align 8 dereferenceable(32) %row_cache_id_) #19
  %add.i = add i64 %call11, %7
  %key_.i.i = getelementptr inbounds i8, ptr %row_cache_key, i64 8
  %8 = load ptr, ptr %key_.i.i, align 8
  %9 = load ptr, ptr %row_cache_key, align 8
  %cmp.i.not.i = icmp eq ptr %8, %9
  %buf_size_.i = getelementptr inbounds i8, ptr %row_cache_key, i64 24
  %10 = load i64, ptr %buf_size_.i, align 8
  br i1 %cmp.i.not.i, label %if.else.i, label %if.then.i

if.then.i:                                        ; preds = %if.end
  %cmp.i10.i = icmp ult i64 %10, %add.i
  br i1 %cmp.i10.i, label %if.then.i.i, label %_ZN7rocksdb7IterKey21EnlargeBufferIfNeededEm.exit.i

if.then.i.i:                                      ; preds = %if.then.i
  tail call void @_ZN7rocksdb7IterKey13EnlargeBufferEm(ptr noundef nonnull align 8 dereferenceable(72) %row_cache_key, i64 noundef %add.i)
  %.pre.i = load ptr, ptr %row_cache_key, align 8
  %.pre11.i = load ptr, ptr %key_.i.i, align 8
  br label %_ZN7rocksdb7IterKey21EnlargeBufferIfNeededEm.exit.i

_ZN7rocksdb7IterKey21EnlargeBufferIfNeededEm.exit.i: ; preds = %if.then.i.i, %if.then.i
  %11 = phi ptr [ %8, %if.then.i ], [ %.pre11.i, %if.then.i.i ]
  %12 = phi ptr [ %9, %if.then.i ], [ %.pre.i, %if.then.i.i ]
  tail call void @llvm.memcpy.p0.p0.i64(ptr align 1 %12, ptr align 1 %11, i64 %7, i1 false)
  %.pre12.i = load ptr, ptr %row_cache_key, align 8
  br label %_ZN7rocksdb7IterKey10TrimAppendEmPKcm.exit

if.else.i:                                        ; preds = %if.end
  %cmp.i10 = icmp ugt i64 %add.i, %10
  br i1 %cmp.i10, label %if.then2.i, label %_ZN7rocksdb7IterKey10TrimAppendEmPKcm.exit

if.then2.i:                                       ; preds = %if.else.i
  %call3.i = tail call noalias noundef nonnull ptr @_Znam(i64 noundef %add.i) #20
  tail call void @llvm.memcpy.p0.p0.i64(ptr nonnull align 1 %call3.i, ptr align 1 %8, i64 %7, i1 false)
  %space_.i = getelementptr inbounds i8, ptr %row_cache_key, i64 32
  %cmp6.not.i = icmp eq ptr %8, %space_.i
  %isnull.i = icmp eq ptr %8, null
  %or.cond.i = or i1 %cmp6.not.i, %isnull.i
  br i1 %or.cond.i, label %if.end.i, label %delete.notnull.i

delete.notnull.i:                                 ; preds = %if.then2.i
  tail call void @_ZdaPv(ptr noundef nonnull %8) #18
  br label %if.end.i

if.end.i:                                         ; preds = %delete.notnull.i, %if.then2.i
  store ptr %call3.i, ptr %row_cache_key, align 8
  store i64 %add.i, ptr %buf_size_.i, align 8
  br label %_ZN7rocksdb7IterKey10TrimAppendEmPKcm.exit

_ZN7rocksdb7IterKey10TrimAppendEmPKcm.exit:       ; preds = %_ZN7rocksdb7IterKey21EnlargeBufferIfNeededEm.exit.i, %if.else.i, %if.end.i
  %13 = phi ptr [ %8, %if.else.i ], [ %call3.i, %if.end.i ], [ %.pre12.i, %_ZN7rocksdb7IterKey21EnlargeBufferIfNeededEm.exit.i ]
  %and.i = and i64 %0, 4611686018427387903
  %add.ptr.i8 = getelementptr inbounds i8, ptr %13, i64 %7
  tail call void @llvm.memcpy.p0.p0.i64(ptr align 1 %add.ptr.i8, ptr align 1 %call9, i64 %call11, i1 false)
  %14 = load ptr, ptr %row_cache_key, align 8
  store ptr %14, ptr %key_.i.i, align 8
  store i64 %add.i, ptr %key_size_.i, align 8
  tail call fastcc void @_ZN7rocksdb12_GLOBAL__N_114AppendVarint64EPNS_7IterKeyEm(ptr noundef nonnull %row_cache_key, i64 noundef %and.i)
  tail call fastcc void @_ZN7rocksdb12_GLOBAL__N_114AppendVarint64EPNS_7IterKeyEm(ptr noundef nonnull %row_cache_key, i64 noundef %cache_entry_seq_no.0)
  %cond = tail call i64 @llvm.usub.sat.i64(i64 %cache_entry_seq_no.0, i64 1)
  ret i64 %cond
}